; Function Attrs: mustprogress uwtable
define void @_ZN8facebook5velox9MapVector7setTypeERKSt10shared_ptrIKNS0_4TypeEE(ptr noundef nonnull align 8 dereferenceable(169) %this, ptr noundef nonnull align 8 dereferenceable(16) %type) unnamed_addr #0 align 2 {
entry:
  tail call void @_ZN8facebook5velox10BaseVector7setTypeERKSt10shared_ptrIKNS0_4TypeEE(ptr noundef nonnull align 8 dereferenceable(99) %this, ptr noundef nonnull align 8 dereferenceable(16) %type)
  %type_ = getelementptr inbounds i8, ptr %this, i64 8
  %0 = load ptr, ptr %type_, align 8
  %1 = tail call ptr @__dynamic_cast(ptr nonnull %0, ptr nonnull @_ZTIN8facebook5velox4TypeE, ptr nonnull @_ZTIN8facebook5velox7MapTypeE, i64 0) #22
  %2 = icmp eq ptr %1, null
  br i1 %2, label %dynamic_cast.bad_cast.i.i, label %_ZNK8facebook5velox4Type5asMapEv.exit

dynamic_cast.bad_cast.i.i:                        ; preds = %entry
  tail call void @__cxa_bad_cast() #23
  unreachable

_ZNK8facebook5velox4Type5asMapEv.exit:            ; preds = %entry
  %keys_ = getelementptr inbounds i8, ptr %this, i64 136
  %3 = load ptr, ptr %keys_, align 8
  %keyType_.i = getelementptr inbounds i8, ptr %1, i64 24
  %vtable = load ptr, ptr %3, align 8
  %vfn = getelementptr inbounds i8, ptr %vtable, i64 48
  %4 = load ptr, ptr %vfn, align 8
  tail call void %4(ptr noundef nonnull align 8 dereferenceable(99) %3, ptr noundef nonnull align 8 dereferenceable(16) %keyType_.i)
  %values_ = getelementptr inbounds i8, ptr %this, i64 152
  %5 = load ptr, ptr %values_, align 8
  %valueType_.i = getelementptr inbounds i8, ptr %1, i64 40
  %vtable7 = load ptr, ptr %5, align 8
  %vfn8 = getelementptr inbounds i8, ptr %vtable7, i64 48
  %6 = load ptr, ptr %vfn8, align 8
  tail call void %6(ptr noundef nonnull align 8 dereferenceable(99) %5, ptr noundef nonnull align 8 dereferenceable(16) %valueType_.i)
  ret void
}